target datalayout = "e-m:e-p270:32:32-p271:32:32-p272:64:64-i64:64-i128:128-f80:128-n8:16:32:64-S128"
target triple = "x86_64-pc-linux-gnu"

%struct._value_string_ext = type { ptr, i32, i32, ptr, ptr }

@hf_gsm_a_rr_dtx_used = internal global i32 0, align 4
@gsm_a_rr_rxlev_vals_ext = external global %struct._value_string_ext, align 8
@hf_gsm_a_rr_seq_code = internal global i32 0, align 4
@hf_gsm_a_rr_rxlev_carrier = internal global i32 0, align 4
@.str.1837 = private unnamed_addr constant [26 x i8] c"RXLEV carrier %d: %s (%d)\00", align 1
@.str.1838 = private unnamed_addr constant [8 x i8] c"Unknown\00", align 1

; Function Attrs: null_pointer_is_valid sspstrong uwtable
define internal zeroext i16 @de_rr_ext_meas_result(ptr noundef %0, ptr noundef %1, ptr noundef %2, i32 noundef %3, i32 noundef %4, ptr noundef %5, i32 noundef %6) #1 {
  %8 = alloca ptr, align 8
  %9 = alloca ptr, align 8
  %10 = alloca ptr, align 8
  %11 = alloca i32, align 4
  %12 = alloca i32, align 4
  %13 = alloca ptr, align 8
  %14 = alloca i32, align 4
  %15 = alloca i32, align 4
  %16 = alloca i32, align 4
  %17 = alloca i32, align 4
  %18 = alloca i8, align 1
  store ptr %0, ptr %8, align 8
  store ptr %1, ptr %9, align 8
  store ptr %2, ptr %10, align 8
  store i32 %3, ptr %11, align 4
  store i32 %4, ptr %12, align 4
  store ptr %5, ptr %13, align 8
  store i32 %6, ptr %14, align 4
  call void @llvm.lifetime.start.p0(i64 4, ptr %15) #11
  call void @llvm.lifetime.start.p0(i64 4, ptr %16) #11
  call void @llvm.lifetime.start.p0(i64 4, ptr %17) #11
  call void @llvm.lifetime.start.p0(i64 1, ptr %18) #11
  %19 = load i32, ptr %11, align 4
  store i32 %19, ptr %15, align 4
  %20 = load i32, ptr %15, align 4
  %21 = shl i32 %20, 3
  store i32 %21, ptr %16, align 4
  %22 = load ptr, ptr %9, align 8
  %23 = load i32, ptr @hf_gsm_a_rr_seq_code, align 4
  %24 = load ptr, ptr %8, align 8
  %25 = load i32, ptr %16, align 4
  %26 = call ptr @proto_tree_add_bits_item(ptr noundef %22, i32 noundef %23, ptr noundef %24, i32 noundef %25, i32 noundef 1, i32 noundef 0)
  %27 = load i32, ptr %16, align 4
  %28 = add i32 %27, 1
  store i32 %28, ptr %16, align 4
  %29 = load ptr, ptr %9, align 8
  %30 = load i32, ptr @hf_gsm_a_rr_dtx_used, align 4
  %31 = load ptr, ptr %8, align 8
  %32 = load i32, ptr %16, align 4
  %33 = call ptr @proto_tree_add_bits_item(ptr noundef %29, i32 noundef %30, ptr noundef %31, i32 noundef %32, i32 noundef 1, i32 noundef 0)
  %34 = load i32, ptr %16, align 4
  %35 = add i32 %34, 1
  store i32 %35, ptr %16, align 4
  store i32 0, ptr %17, align 4
  br label %36

36:                                               ; preds = %59, %7
  %37 = load i32, ptr %17, align 4
  %38 = icmp slt i32 %37, 21
  br i1 %38, label %39, label %62

39:                                               ; preds = %36
  %40 = load ptr, ptr %8, align 8
  %41 = load i32, ptr %16, align 4
  %42 = call zeroext i8 @tvb_get_bits8(ptr noundef %40, i32 noundef %41, i32 noundef 6)
  store i8 %42, ptr %18, align 1
  %43 = load ptr, ptr %9, align 8
  %44 = load i32, ptr @hf_gsm_a_rr_rxlev_carrier, align 4
  %45 = load ptr, ptr %8, align 8
  %46 = load i32, ptr %16, align 4
  %47 = ashr i32 %46, 3
  %48 = load i8, ptr %18, align 1
  %49 = zext i8 %48 to i32
  %50 = load i32, ptr %17, align 4
  %51 = load i8, ptr %18, align 1
  %52 = zext i8 %51 to i32
  %53 = call ptr @val_to_str_ext_const(i32 noundef %52, ptr noundef @gsm_a_rr_rxlev_vals_ext, ptr noundef @.str.1838)
  %54 = load i8, ptr %18, align 1
  %55 = zext i8 %54 to i32
  %56 = call ptr (ptr, i32, ptr, i32, i32, i32, ptr, ...) @proto_tree_add_uint_format(ptr noundef %43, i32 noundef %44, ptr noundef %45, i32 noundef %47, i32 noundef 1, i32 noundef %49, ptr noundef @.str.1837, i32 noundef %50, ptr noundef %53, i32 noundef %55)
  %57 = load i32, ptr %16, align 4
  %58 = add i32 %57, 6
  store i32 %58, ptr %16, align 4
  br label %59

59:                                               ; preds = %39
  %60 = load i32, ptr %17, align 4
  %61 = add i32 %60, 1
  store i32 %61, ptr %17, align 4
  br label %36, !llvm.loop !39

62:                                               ; preds = %36
  %63 = load i32, ptr %11, align 4
  %64 = load i32, ptr %12, align 4
  %65 = add i32 %63, %64
  store i32 %65, ptr %15, align 4
  %66 = load i32, ptr %15, align 4
  %67 = load i32, ptr %11, align 4
  %68 = sub i32 %66, %67
  %69 = trunc i32 %68 to i16
  call void @llvm.lifetime.end.p0(i64 1, ptr %18) #11
  call void @llvm.lifetime.end.p0(i64 4, ptr %17) #11
  call void @llvm.lifetime.end.p0(i64 4, ptr %16) #11
  call void @llvm.lifetime.end.p0(i64 4, ptr %15) #11
  ret i16 %69
}