; Function Attrs: null_pointer_is_valid sspstrong uwtable
define internal noundef zeroext i16 @de_rr_ext_meas_result(ptr noundef %0, ptr noundef %1, ptr readnone captures(none) %2, i32 noundef %3, i32 noundef %4, ptr readnone captures(none) %5, i32 %6) #3 {
  %8 = shl i32 %3, 3
  %9 = load i32, ptr @hf_gsm_a_rr_seq_code, align 4
  %10 = tail call ptr @proto_tree_add_bits_item(ptr noundef %1, i32 noundef %9, ptr noundef %0, i32 noundef %8, i32 noundef 1, i32 noundef 0)
  %11 = or disjoint i32 %8, 1
  %12 = load i32, ptr @hf_gsm_a_rr_dtx_used, align 4
  %13 = tail call ptr @proto_tree_add_bits_item(ptr noundef %1, i32 noundef %12, ptr noundef %0, i32 noundef %11, i32 noundef 1, i32 noundef 0)
  %14 = or disjoint i32 %8, 2
  br label %15

15:                                               ; preds = %7, %15
  %.027 = phi i32 [ 0, %7 ], [ %23, %15 ]
  %.02526 = phi i32 [ %14, %7 ], [ %22, %15 ]
  %16 = tail call zeroext i8 @tvb_get_bits8(ptr noundef %0, i32 noundef %.02526, i32 noundef 6)
  %17 = load i32, ptr @hf_gsm_a_rr_rxlev_carrier, align 4
  %18 = ashr i32 %.02526, 3
  %19 = zext i8 %16 to i32
  %20 = tail call ptr @val_to_str_ext_const(i32 noundef %19, ptr noundef nonnull @gsm_a_rr_rxlev_vals_ext, ptr noundef nonnull @.str.1838)
  %21 = tail call ptr (ptr, i32, ptr, i32, i32, i32, ptr, ...) @proto_tree_add_uint_format(ptr noundef %1, i32 noundef %17, ptr noundef %0, i32 noundef %18, i32 noundef 1, i32 noundef %19, ptr noundef nonnull @.str.1837, i32 noundef %.027, ptr noundef %20, i32 noundef %19)
  %22 = add i32 %.02526, 6
  %23 = add nuw nsw i32 %.027, 1
  %exitcond.not = icmp eq i32 %23, 21
  br i1 %exitcond.not, label %24, label %15, !llvm.loop !42

24:                                               ; preds = %15
  %25 = trunc i32 %4 to i16
  ret i16 %25
}